(lp0
(i__main__
Personne
p1
(dp2
S'nom'
p3
S'Hugo'
p4
sS'prenom'
p5
S'Victor'
p6
sba(i__main__
Personne
p7
(dp8
g3
S'Verlaine'
p9
sg5
S'Paul'
p10
sba(i__main__
Personne
p11
(dp12
g3
S'Camus'
p13
sg5
S'Albert'
p14
sba.